target datalayout = "e-m:e-p270:32:32-p271:32:32-p272:64:64-i64:64-i128:128-f80:128-n8:16:32:64-S128"
target triple = "x86_64-pc-linux-gnu"

%struct.AVFilterContext = type { ptr, ptr, ptr, ptr, ptr, i32, ptr, ptr, i32, ptr, ptr, i32, i32, ptr, ptr, ptr, ptr, i32, ptr, i32, i32 }
%struct.ConvolveContext = type { ptr, %struct.FFFrameSync, [4 x [16 x ptr]], [4 x [16 x ptr]], [4 x ptr], [4 x ptr], [4 x i32], [4 x i32], [4 x i32], [4 x i32], [4 x i32], [4 x i32], [4 x i32], [4 x ptr], [4 x ptr], [4 x ptr], [4 x ptr], [4 x ptr], [4 x ptr], [4 x ptr], [4 x ptr], i32, i32, i32, float, i32, [4 x i32], ptr, ptr, ptr, ptr }
%struct.FFFrameSync = type { ptr, ptr, i32, %struct.AVRational, i64, ptr, ptr, i32, i32, i8, i8, ptr, i32, i32, i32, i32 }
%struct.AVRational = type { i32, i32 }
%struct.ThreadData = type { ptr, ptr, ptr, ptr, i32, i32 }
%struct.AVComplexFloat = type { float, float }

; Function Attrs: nounwind uwtable
define internal i32 @complex_divide(ptr noundef %0, ptr noundef %1, i32 noundef %2, i32 noundef %3) #0 {
  %5 = alloca ptr, align 8
  %6 = alloca ptr, align 8
  %7 = alloca i32, align 4
  %8 = alloca i32, align 4
  %9 = alloca ptr, align 8
  %10 = alloca ptr, align 8
  %11 = alloca ptr, align 8
  %12 = alloca ptr, align 8
  %13 = alloca float, align 4
  %14 = alloca i32, align 4
  %15 = alloca i32, align 4
  %16 = alloca i32, align 4
  %17 = alloca i32, align 4
  %18 = alloca i32, align 4
  %19 = alloca i32, align 4
  %20 = alloca float, align 4
  %21 = alloca float, align 4
  %22 = alloca float, align 4
  %23 = alloca float, align 4
  %24 = alloca float, align 4
  store ptr %0, ptr %5, align 8, !tbaa !4
  store ptr %1, ptr %6, align 8, !tbaa !92
  store i32 %2, ptr %7, align 4, !tbaa !37
  store i32 %3, ptr %8, align 4, !tbaa !37
  call void @llvm.lifetime.start.p0(i64 8, ptr %9) #10
  %25 = load ptr, ptr %5, align 8, !tbaa !4
  %26 = getelementptr inbounds nuw %struct.AVFilterContext, ptr %25, i32 0, i32 9
  %27 = load ptr, ptr %26, align 8, !tbaa !9
  store ptr %27, ptr %9, align 8, !tbaa !22
  call void @llvm.lifetime.start.p0(i64 8, ptr %10) #10
  %28 = load ptr, ptr %6, align 8, !tbaa !92
  store ptr %28, ptr %10, align 8, !tbaa !93
  call void @llvm.lifetime.start.p0(i64 8, ptr %11) #10
  %29 = load ptr, ptr %10, align 8, !tbaa !93
  %30 = getelementptr inbounds nuw %struct.ThreadData, ptr %29, i32 0, i32 0
  %31 = load ptr, ptr %30, align 8, !tbaa !86
  store ptr %31, ptr %11, align 8, !tbaa !63
  call void @llvm.lifetime.start.p0(i64 8, ptr %12) #10
  %32 = load ptr, ptr %10, align 8, !tbaa !93
  %33 = getelementptr inbounds nuw %struct.ThreadData, ptr %32, i32 0, i32 1
  %34 = load ptr, ptr %33, align 8, !tbaa !87
  store ptr %34, ptr %12, align 8, !tbaa !63
  call void @llvm.lifetime.start.p0(i64 4, ptr %13) #10
  %35 = load ptr, ptr %9, align 8, !tbaa !22
  %36 = getelementptr inbounds nuw %struct.ConvolveContext, ptr %35, i32 0, i32 24
  %37 = load float, ptr %36, align 4, !tbaa !106
  store float %37, ptr %13, align 4, !tbaa !73
  call void @llvm.lifetime.start.p0(i64 4, ptr %14) #10
  %38 = load ptr, ptr %10, align 8, !tbaa !93
  %39 = getelementptr inbounds nuw %struct.ThreadData, ptr %38, i32 0, i32 5
  %40 = load i32, ptr %39, align 4, !tbaa !85
  store i32 %40, ptr %14, align 4, !tbaa !37
  call void @llvm.lifetime.start.p0(i64 4, ptr %15) #10
  %41 = load i32, ptr %14, align 4, !tbaa !37
  %42 = load i32, ptr %7, align 4, !tbaa !37
  %43 = mul nsw i32 %41, %42
  %44 = load i32, ptr %8, align 4, !tbaa !37
  %45 = sdiv i32 %43, %44
  store i32 %45, ptr %15, align 4, !tbaa !37
  call void @llvm.lifetime.start.p0(i64 4, ptr %16) #10
  %46 = load i32, ptr %14, align 4, !tbaa !37
  %47 = load i32, ptr %7, align 4, !tbaa !37
  %48 = add nsw i32 %47, 1
  %49 = mul nsw i32 %46, %48
  %50 = load i32, ptr %8, align 4, !tbaa !37
  %51 = sdiv i32 %49, %50
  store i32 %51, ptr %16, align 4, !tbaa !37
  call void @llvm.lifetime.start.p0(i64 4, ptr %17) #10
  call void @llvm.lifetime.start.p0(i64 4, ptr %18) #10
  %52 = load i32, ptr %15, align 4, !tbaa !37
  store i32 %52, ptr %17, align 4, !tbaa !37
  br label %53

53:                                               ; preds = %141, %4
  %54 = load i32, ptr %17, align 4, !tbaa !37
  %55 = load i32, ptr %16, align 4, !tbaa !37
  %56 = icmp slt i32 %54, %55
  br i1 %56, label %57, label %144

57:                                               ; preds = %53
  call void @llvm.lifetime.start.p0(i64 4, ptr %19) #10
  %58 = load i32, ptr %17, align 4, !tbaa !37
  %59 = load i32, ptr %14, align 4, !tbaa !37
  %60 = mul nsw i32 %58, %59
  store i32 %60, ptr %19, align 4, !tbaa !37
  store i32 0, ptr %18, align 4, !tbaa !37
  br label %61

61:                                               ; preds = %137, %57
  %62 = load i32, ptr %18, align 4, !tbaa !37
  %63 = load i32, ptr %14, align 4, !tbaa !37
  %64 = icmp slt i32 %62, %63
  br i1 %64, label %65, label %140

65:                                               ; preds = %61
  call void @llvm.lifetime.start.p0(i64 4, ptr %20) #10
  call void @llvm.lifetime.start.p0(i64 4, ptr %21) #10
  call void @llvm.lifetime.start.p0(i64 4, ptr %22) #10
  call void @llvm.lifetime.start.p0(i64 4, ptr %23) #10
  call void @llvm.lifetime.start.p0(i64 4, ptr %24) #10
  %66 = load ptr, ptr %11, align 8, !tbaa !63
  %67 = load i32, ptr %19, align 4, !tbaa !37
  %68 = load i32, ptr %18, align 4, !tbaa !37
  %69 = add nsw i32 %67, %68
  %70 = sext i32 %69 to i64
  %71 = getelementptr inbounds %struct.AVComplexFloat, ptr %66, i64 %70
  %72 = getelementptr inbounds nuw %struct.AVComplexFloat, ptr %71, i32 0, i32 0
  %73 = load float, ptr %72, align 4, !tbaa !98
  store float %73, ptr %20, align 4, !tbaa !73
  %74 = load ptr, ptr %11, align 8, !tbaa !63
  %75 = load i32, ptr %19, align 4, !tbaa !37
  %76 = load i32, ptr %18, align 4, !tbaa !37
  %77 = add nsw i32 %75, %76
  %78 = sext i32 %77 to i64
  %79 = getelementptr inbounds %struct.AVComplexFloat, ptr %74, i64 %78
  %80 = getelementptr inbounds nuw %struct.AVComplexFloat, ptr %79, i32 0, i32 1
  %81 = load float, ptr %80, align 4, !tbaa !100
  store float %81, ptr %21, align 4, !tbaa !73
  %82 = load ptr, ptr %12, align 8, !tbaa !63
  %83 = load i32, ptr %19, align 4, !tbaa !37
  %84 = load i32, ptr %18, align 4, !tbaa !37
  %85 = add nsw i32 %83, %84
  %86 = sext i32 %85 to i64
  %87 = getelementptr inbounds %struct.AVComplexFloat, ptr %82, i64 %86
  %88 = getelementptr inbounds nuw %struct.AVComplexFloat, ptr %87, i32 0, i32 0
  %89 = load float, ptr %88, align 4, !tbaa !98
  store float %89, ptr %22, align 4, !tbaa !73
  %90 = load ptr, ptr %12, align 8, !tbaa !63
  %91 = load i32, ptr %19, align 4, !tbaa !37
  %92 = load i32, ptr %18, align 4, !tbaa !37
  %93 = add nsw i32 %91, %92
  %94 = sext i32 %93 to i64
  %95 = getelementptr inbounds %struct.AVComplexFloat, ptr %90, i64 %94
  %96 = getelementptr inbounds nuw %struct.AVComplexFloat, ptr %95, i32 0, i32 1
  %97 = load float, ptr %96, align 4, !tbaa !100
  store float %97, ptr %23, align 4, !tbaa !73
  %98 = load float, ptr %22, align 4, !tbaa !73
  %99 = load float, ptr %22, align 4, !tbaa !73
  %100 = load float, ptr %23, align 4, !tbaa !73
  %101 = load float, ptr %23, align 4, !tbaa !73
  %102 = fmul nsz float %100, %101
  %103 = call nsz float @llvm.fmuladd.f32(float %98, float %99, float %102)
  %104 = load float, ptr %13, align 4, !tbaa !73
  %105 = fadd nsz float %103, %104
  store float %105, ptr %24, align 4, !tbaa !73
  %106 = load float, ptr %22, align 4, !tbaa !73
  %107 = load float, ptr %20, align 4, !tbaa !73
  %108 = load float, ptr %23, align 4, !tbaa !73
  %109 = load float, ptr %21, align 4, !tbaa !73
  %110 = fmul nsz float %108, %109
  %111 = call nsz float @llvm.fmuladd.f32(float %106, float %107, float %110)
  %112 = load float, ptr %24, align 4, !tbaa !73
  %113 = fdiv nsz float %111, %112
  %114 = load ptr, ptr %11, align 8, !tbaa !63
  %115 = load i32, ptr %19, align 4, !tbaa !37
  %116 = load i32, ptr %18, align 4, !tbaa !37
  %117 = add nsw i32 %115, %116
  %118 = sext i32 %117 to i64
  %119 = getelementptr inbounds %struct.AVComplexFloat, ptr %114, i64 %118
  %120 = getelementptr inbounds nuw %struct.AVComplexFloat, ptr %119, i32 0, i32 0
  store float %113, ptr %120, align 4, !tbaa !98
  %121 = load float, ptr %22, align 4, !tbaa !73
  %122 = load float, ptr %21, align 4, !tbaa !73
  %123 = load float, ptr %23, align 4, !tbaa !73
  %124 = load float, ptr %20, align 4, !tbaa !73
  %125 = fmul nsz float %123, %124
  %126 = fneg nsz float %125
  %127 = call nsz float @llvm.fmuladd.f32(float %121, float %122, float %126)
  %128 = load float, ptr %24, align 4, !tbaa !73
  %129 = fdiv nsz float %127, %128
  %130 = load ptr, ptr %11, align 8, !tbaa !63
  %131 = load i32, ptr %19, align 4, !tbaa !37
  %132 = load i32, ptr %18, align 4, !tbaa !37
  %133 = add nsw i32 %131, %132
  %134 = sext i32 %133 to i64
  %135 = getelementptr inbounds %struct.AVComplexFloat, ptr %130, i64 %134
  %136 = getelementptr inbounds nuw %struct.AVComplexFloat, ptr %135, i32 0, i32 1
  store float %129, ptr %136, align 4, !tbaa !100
  call void @llvm.lifetime.end.p0(i64 4, ptr %24) #10
  call void @llvm.lifetime.end.p0(i64 4, ptr %23) #10
  call void @llvm.lifetime.end.p0(i64 4, ptr %22) #10
  call void @llvm.lifetime.end.p0(i64 4, ptr %21) #10
  call void @llvm.lifetime.end.p0(i64 4, ptr %20) #10
  br label %137

137:                                              ; preds = %65
  %138 = load i32, ptr %18, align 4, !tbaa !37
  %139 = add nsw i32 %138, 1
  store i32 %139, ptr %18, align 4, !tbaa !37
  br label %61, !llvm.loop !174

140:                                              ; preds = %61
  call void @llvm.lifetime.end.p0(i64 4, ptr %19) #10
  br label %141

141:                                              ; preds = %140
  %142 = load i32, ptr %17, align 4, !tbaa !37
  %143 = add nsw i32 %142, 1
  store i32 %143, ptr %17, align 4, !tbaa !37
  br label %53, !llvm.loop !175

144:                                              ; preds = %53
  call void @llvm.lifetime.end.p0(i64 4, ptr %18) #10
  call void @llvm.lifetime.end.p0(i64 4, ptr %17) #10
  call void @llvm.lifetime.end.p0(i64 4, ptr %16) #10
  call void @llvm.lifetime.end.p0(i64 4, ptr %15) #10
  call void @llvm.lifetime.end.p0(i64 4, ptr %14) #10
  call void @llvm.lifetime.end.p0(i64 4, ptr %13) #10
  call void @llvm.lifetime.end.p0(i64 8, ptr %12) #10
  call void @llvm.lifetime.end.p0(i64 8, ptr %11) #10
  call void @llvm.lifetime.end.p0(i64 8, ptr %10) #10
  call void @llvm.lifetime.end.p0(i64 8, ptr %9) #10
  ret i32 0
}