; Function Attrs: nofree norecurse nosync nounwind memory(readwrite, inaccessiblemem: none) uwtable
define internal noundef i32 @complex_divide(ptr noundef readonly captures(none) %0, ptr noundef readonly captures(none) %1, i32 noundef %2, i32 noundef %3) #8 {
  %5 = getelementptr inbounds nuw i8, ptr %0, i64 72
  %6 = load ptr, ptr %5, align 8, !tbaa !4
  %7 = load ptr, ptr %1, align 8, !tbaa !76
  %8 = getelementptr inbounds nuw i8, ptr %1, i64 8
  %9 = load ptr, ptr %8, align 8, !tbaa !77
  %10 = getelementptr inbounds nuw i8, ptr %6, i64 1572
  %11 = load float, ptr %10, align 4, !tbaa !94
  %12 = getelementptr inbounds nuw i8, ptr %1, i64 36
  %13 = load i32, ptr %12, align 4, !tbaa !75
  %14 = mul nsw i32 %13, %2
  %15 = sdiv i32 %14, %3
  %16 = add nsw i32 %2, 1
  %17 = mul nsw i32 %13, %16
  %18 = sdiv i32 %17, %3
  %19 = icmp slt i32 %15, %18
  %20 = icmp sgt i32 %13, 0
  %or.cond = and i1 %19, %20
  br i1 %or.cond, label %.lr.ph.us.preheader, label %._crit_edge58

.lr.ph.us.preheader:                              ; preds = %4
  %21 = sext i32 %15 to i64
  %22 = zext nneg i32 %13 to i64
  %wide.trip.count64 = sext i32 %18 to i64
  %wide.trip.count = zext nneg i32 %13 to i64
  br label %.lr.ph.us

.lr.ph.us:                                        ; preds = %.lr.ph.us.preheader, %._crit_edge.us
  %indvars.iv61 = phi i64 [ %21, %.lr.ph.us.preheader ], [ %indvars.iv.next62, %._crit_edge.us ]
  %23 = mul nsw i64 %indvars.iv61, %22
  br label %24

24:                                               ; preds = %.lr.ph.us, %24
  %indvars.iv = phi i64 [ 0, %.lr.ph.us ], [ %indvars.iv.next, %24 ]
  %25 = add nsw i64 %indvars.iv, %23
  %26 = getelementptr inbounds %struct.AVComplexFloat, ptr %7, i64 %25
  %27 = load float, ptr %26, align 4, !tbaa !86
  %28 = getelementptr inbounds nuw i8, ptr %26, i64 4
  %29 = load float, ptr %28, align 4, !tbaa !88
  %30 = getelementptr inbounds %struct.AVComplexFloat, ptr %9, i64 %25
  %31 = load float, ptr %30, align 4, !tbaa !86
  %32 = getelementptr inbounds nuw i8, ptr %30, i64 4
  %33 = load float, ptr %32, align 4, !tbaa !88
  %34 = fmul nsz float %33, %33
  %35 = tail call nsz float @llvm.fmuladd.f32(float %31, float %31, float %34)
  %36 = fadd nsz float %11, %35
  %37 = fmul nsz float %29, %33
  %38 = tail call nsz float @llvm.fmuladd.f32(float %31, float %27, float %37)
  %39 = fdiv nsz float %38, %36
  store float %39, ptr %26, align 4, !tbaa !86
  %40 = fneg nsz float %27
  %41 = fmul nsz float %33, %40
  %42 = tail call nsz float @llvm.fmuladd.f32(float %31, float %29, float %41)
  %43 = fdiv nsz float %42, %36
  store float %43, ptr %28, align 4, !tbaa !88
  %indvars.iv.next = add nuw nsw i64 %indvars.iv, 1
  %exitcond.not = icmp eq i64 %indvars.iv.next, %wide.trip.count
  br i1 %exitcond.not, label %._crit_edge.us, label %24, !llvm.loop !156

._crit_edge.us:                                   ; preds = %24
  %indvars.iv.next62 = add nsw i64 %indvars.iv61, 1
  %exitcond65.not = icmp eq i64 %indvars.iv.next62, %wide.trip.count64
  br i1 %exitcond65.not, label %._crit_edge58, label %.lr.ph.us, !llvm.loop !157

._crit_edge58:                                    ; preds = %._crit_edge.us, %4
  ret i32 0
}